; Function Attrs: mustprogress nounwind uwtable
define internal noundef zeroext i1 @_ZNK12_GLOBAL__N_122ParsedAttrInfoMustTail20diagAppertainsToStmtERN5clang4SemaERKNS1_10ParsedAttrEPKNS1_4StmtE(ptr nocapture nonnull readnone align 8 %0, ptr noundef nonnull align 8 dereferenceable(17560) %1, ptr noundef nonnull align 8 dereferenceable(72) %2, ptr nocapture noundef readonly %3) unnamed_addr #0 align 2 {
  %5 = alloca %"class.clang::SemaBase::SemaDiagnosticBuilder", align 8
  %6 = alloca i8, align 1
  %7 = load i8, ptr %3, align 8
  %8 = icmp eq i8 %7, -118
  br i1 %8, label %20, label %9

9:                                                ; preds = %4
  %10 = getelementptr inbounds i8, ptr %1, i64 8
  %11 = getelementptr inbounds nuw i8, ptr %2, i64 16
  %.sroa.0.0.copyload.i.i = load i32, ptr %11, align 8
  call void @_ZN5clang8SemaBase4DiagENS_14SourceLocationEjb(ptr dead_on_unwind nonnull writable sret(%"class.clang::SemaBase::SemaDiagnosticBuilder") align 8 %5, ptr noundef nonnull align 8 dereferenceable(8) %10, i32 %.sroa.0.0.copyload.i.i, i32 noundef 2943, i1 noundef zeroext false) #18
  %12 = call noundef nonnull align 8 dereferenceable(96) ptr @_ZN5clanglsINS_10ParsedAttrEEERKNS_8SemaBase21SemaDiagnosticBuilderES5_RKT_(ptr noundef nonnull align 8 dereferenceable(96) %5, ptr noundef nonnull align 8 dereferenceable(72) %2)
  %13 = getelementptr inbounds nuw i8, ptr %2, i64 28
  %14 = load i32, ptr %13, align 4
  %15 = lshr i32 %14, 25
  %16 = trunc nuw nsw i32 %15 to i8
  %17 = and i8 %16, 1
  store i8 %17, ptr %6, align 1
  %18 = call noundef nonnull align 8 dereferenceable(96) ptr @_ZNK5clang8SemaBase21SemaDiagnosticBuilderlsIbvEERKS1_OT_(ptr noundef nonnull align 8 dereferenceable(96) %12, ptr noundef nonnull align 1 dereferenceable(1) %6)
  %19 = call noundef nonnull align 8 dereferenceable(96) ptr @_ZN5clanglsIA18_cEERKNS_8SemaBase21SemaDiagnosticBuilderES5_RKT_(ptr noundef nonnull align 8 dereferenceable(96) %18, ptr noundef nonnull align 1 dereferenceable(18) @.str.1385)
  call void @_ZN5clang8SemaBase21SemaDiagnosticBuilderD1Ev(ptr noundef nonnull align 8 dereferenceable(96) %5) #18
  br label %20

20:                                               ; preds = %4, %9
  ret i1 %8
}